; Function Attrs: mustprogress uwtable
define hidden void @_ZN7datalog21sieve_relation_plugin23collect_inner_signatureERKNS_18relation_signatureERK7svectorIbjERS1_(ptr noundef nonnull readnone align 8 captures(none) dereferenceable(104) %0, ptr noundef nonnull readonly align 8 captures(none) dereferenceable(8) %1, ptr noundef nonnull readonly align 8 captures(none) dereferenceable(8) %2, ptr noundef nonnull align 8 dereferenceable(8) %3) local_unnamed_addr #3 align 2 {
  %5 = load ptr, ptr %3, align 8, !tbaa !10
  %.not.i = icmp eq ptr %5, null
  br i1 %.not.i, label %_ZN6vectorIP4sortLb0EjE5resetEv.exit, label %6

6:                                                ; preds = %4
  %7 = getelementptr inbounds i8, ptr %5, i64 -4
  store i32 0, ptr %7, align 4, !tbaa !14
  br label %_ZN6vectorIP4sortLb0EjE5resetEv.exit

_ZN6vectorIP4sortLb0EjE5resetEv.exit:             ; preds = %4, %6
  %8 = load ptr, ptr %1, align 8, !tbaa !10
  %9 = icmp eq ptr %8, null
  br i1 %9, label %._crit_edge, label %_ZNK6vectorIP4sortLb0EjE4sizeEv.exit

_ZNK6vectorIP4sortLb0EjE4sizeEv.exit:             ; preds = %_ZN6vectorIP4sortLb0EjE5resetEv.exit
  %10 = getelementptr inbounds i8, ptr %8, i64 -4
  %11 = load i32, ptr %10, align 4, !tbaa !14
  %.not = icmp eq i32 %11, 0
  br i1 %.not, label %._crit_edge, label %.lr.ph.preheader

.lr.ph.preheader:                                 ; preds = %_ZNK6vectorIP4sortLb0EjE4sizeEv.exit
  %wide.trip.count = zext i32 %11 to i64
  br label %.lr.ph

._crit_edge:                                      ; preds = %35, %_ZN6vectorIP4sortLb0EjE5resetEv.exit, %_ZNK6vectorIP4sortLb0EjE4sizeEv.exit
  ret void

.lr.ph:                                           ; preds = %.lr.ph.preheader, %35
  %12 = phi ptr [ %5, %.lr.ph.preheader ], [ %36, %35 ]
  %indvars.iv = phi i64 [ 0, %.lr.ph.preheader ], [ %indvars.iv.next, %35 ]
  %13 = load ptr, ptr %2, align 8, !tbaa !29
  %14 = getelementptr inbounds nuw i8, ptr %13, i64 %indvars.iv
  %15 = load i8, ptr %14, align 1, !tbaa !32, !range !34, !noundef !35
  %16 = trunc nuw i8 %15 to i1
  br i1 %16, label %17, label %35

17:                                               ; preds = %.lr.ph
  %18 = load ptr, ptr %1, align 8, !tbaa !10
  %19 = getelementptr inbounds nuw ptr, ptr %18, i64 %indvars.iv
  %20 = icmp eq ptr %12, null
  br i1 %20, label %27, label %21

21:                                               ; preds = %17
  %22 = getelementptr inbounds i8, ptr %12, i64 -4
  %23 = load i32, ptr %22, align 4, !tbaa !14
  %24 = getelementptr inbounds i8, ptr %12, i64 -8
  %25 = load i32, ptr %24, align 4, !tbaa !14
  %26 = icmp eq i32 %23, %25
  br i1 %26, label %27, label %_ZN6vectorIP4sortLb0EjE9push_backERKS1_.exit

27:                                               ; preds = %21, %17
  tail call void @_ZN6vectorIP4sortLb0EjE13expand_vectorEv(ptr noundef nonnull align 8 dereferenceable(8) %3)
  %.pre.i = load ptr, ptr %3, align 8, !tbaa !10
  %.phi.trans.insert.i = getelementptr inbounds i8, ptr %.pre.i, i64 -4
  %.pre2.i = load i32, ptr %.phi.trans.insert.i, align 4, !tbaa !14
  br label %_ZN6vectorIP4sortLb0EjE9push_backERKS1_.exit

_ZN6vectorIP4sortLb0EjE9push_backERKS1_.exit:     ; preds = %21, %27
  %28 = phi ptr [ %.pre.i, %27 ], [ %12, %21 ]
  %29 = phi i32 [ %.pre2.i, %27 ], [ %23, %21 ]
  %30 = getelementptr inbounds i8, ptr %28, i64 -4
  %31 = zext i32 %29 to i64
  %32 = getelementptr inbounds nuw ptr, ptr %28, i64 %31
  %33 = load ptr, ptr %19, align 8, !tbaa !63
  store ptr %33, ptr %32, align 8, !tbaa !63
  %34 = add i32 %29, 1
  store i32 %34, ptr %30, align 4, !tbaa !14
  br label %35

35:                                               ; preds = %.lr.ph, %_ZN6vectorIP4sortLb0EjE9push_backERKS1_.exit
  %36 = phi ptr [ %12, %.lr.ph ], [ %28, %_ZN6vectorIP4sortLb0EjE9push_backERKS1_.exit ]
  %indvars.iv.next = add nuw nsw i64 %indvars.iv, 1
  %exitcond.not = icmp eq i64 %indvars.iv.next, %wide.trip.count
  br i1 %exitcond.not, label %._crit_edge, label %.lr.ph, !llvm.loop !130
}